; Function Attrs: null_pointer_is_valid sspstrong uwtable
define internal i32 @dissect_ldap_T_or(i1 noundef zeroext %0, ptr noundef %1, i32 noundef %2, ptr noundef %3, ptr noundef %4, i32 noundef %5) #0 {
  %7 = alloca ptr, align 8
  call void @llvm.lifetime.start.p0(i64 8, ptr nonnull %7) #14
  %8 = load ptr, ptr @or_filter_string, align 8
  store ptr null, ptr @or_filter_string, align 8
  %9 = load i32, ptr @ett_ldap_T_or, align 4
  %10 = call ptr @proto_tree_add_subtree(ptr noundef %4, ptr noundef %1, i32 noundef %2, i32 noundef -1, i32 noundef %9, ptr noundef nonnull %7, ptr noundef nonnull @.str.897)
  %11 = load i32, ptr @ett_ldap_T_or, align 4
  %12 = call i32 @dissect_ber_set_of(i1 noundef zeroext %0, ptr noundef %3, ptr noundef %10, ptr noundef %1, i32 noundef %2, ptr noundef nonnull @T_or_set_of, i32 noundef %5, i32 noundef %11)
  %13 = load ptr, ptr @or_filter_string, align 8
  %.not = icmp eq ptr %13, null
  br i1 %.not, label %22, label %14

14:                                               ; preds = %6
  %15 = load ptr, ptr %7, align 8
  call void (ptr, ptr, ...) @proto_item_append_text(ptr noundef %15, ptr noundef nonnull @.str.891, ptr noundef nonnull %13)
  %16 = getelementptr inbounds nuw i8, ptr %3, i64 16
  %17 = load ptr, ptr %16, align 8
  %18 = getelementptr inbounds nuw i8, ptr %17, i64 408
  %19 = load ptr, ptr %18, align 8
  %20 = load ptr, ptr @or_filter_string, align 8
  %21 = call noalias ptr @wmem_strdup(ptr noundef %19, ptr noundef %20)
  store ptr %21, ptr @Filter_string, align 8
  br label %22

22:                                               ; preds = %14, %6
  store ptr %8, ptr @or_filter_string, align 8
  call void @llvm.lifetime.end.p0(i64 8, ptr nonnull %7) #14
  ret i32 %12
}